target datalayout = "e-m:e-p270:32:32-p271:32:32-p272:64:64-i64:64-i128:128-f80:128-n8:16:32:64-S128"
target triple = "x86_64-pc-linux-gnu"

%struct.AVChannelLayout = type { i32, i32, %union.anon.2, ptr }
%union.anon.2 = type { i64 }
%struct.AVFilterContext = type { ptr, ptr, ptr, ptr, ptr, i32, ptr, ptr, i32, ptr, ptr, i32, i32, ptr, ptr, ptr, ptr, i32, ptr, i32, i32 }
%struct.AFormatContext = type { ptr, ptr, i32, ptr, i32, ptr, i32 }

; Function Attrs: cold nounwind optsize uwtable
define internal i32 @init(ptr noundef %0) #0 {
  %2 = alloca i32, align 4
  %3 = alloca ptr, align 8
  %4 = alloca ptr, align 8
  %5 = alloca ptr, align 8
  %6 = alloca i32, align 4
  %7 = alloca ptr, align 8
  %8 = alloca ptr, align 8
  %9 = alloca %struct.AVChannelLayout, align 8
  store ptr %0, ptr %3, align 8, !tbaa !4
  call void @llvm.lifetime.start.p0(i64 8, ptr %4) #6
  %10 = load ptr, ptr %3, align 8, !tbaa !4
  %11 = getelementptr inbounds nuw %struct.AVFilterContext, ptr %10, i32 0, i32 9
  %12 = load ptr, ptr %11, align 8, !tbaa !9
  store ptr %12, ptr %4, align 8, !tbaa !22
  %13 = load ptr, ptr %4, align 8, !tbaa !22
  %14 = getelementptr inbounds nuw %struct.AFormatContext, ptr %13, i32 0, i32 2
  %15 = load i32, ptr %14, align 8, !tbaa !24
  %16 = icmp ne i32 %15, 0
  br i1 %16, label %17, label %45

17:                                               ; preds = %1
  call void @llvm.lifetime.start.p0(i64 8, ptr %5) #6
  %18 = load ptr, ptr %4, align 8, !tbaa !22
  %19 = getelementptr inbounds nuw %struct.AFormatContext, ptr %18, i32 0, i32 1
  %20 = load ptr, ptr %19, align 8, !tbaa !28
  %21 = load ptr, ptr %4, align 8, !tbaa !22
  %22 = getelementptr inbounds nuw %struct.AFormatContext, ptr %21, i32 0, i32 2
  %23 = load i32, ptr %22, align 8, !tbaa !24
  %24 = add i32 %23, 1
  %25 = zext i32 %24 to i64
  %26 = call ptr @av_realloc_array(ptr noundef %20, i64 noundef %25, i64 noundef 4)
  store ptr %26, ptr %5, align 8, !tbaa !29
  %27 = load ptr, ptr %5, align 8, !tbaa !29
  %28 = icmp ne ptr %27, null
  br i1 %28, label %30, label %29

29:                                               ; preds = %17
  store i32 -12, ptr %2, align 4
  store i32 1, ptr %6, align 4
  br label %42

30:                                               ; preds = %17
  %31 = load ptr, ptr %5, align 8, !tbaa !29
  %32 = load ptr, ptr %4, align 8, !tbaa !22
  %33 = getelementptr inbounds nuw %struct.AFormatContext, ptr %32, i32 0, i32 1
  store ptr %31, ptr %33, align 8, !tbaa !28
  %34 = load ptr, ptr %4, align 8, !tbaa !22
  %35 = getelementptr inbounds nuw %struct.AFormatContext, ptr %34, i32 0, i32 1
  %36 = load ptr, ptr %35, align 8, !tbaa !28
  %37 = load ptr, ptr %4, align 8, !tbaa !22
  %38 = getelementptr inbounds nuw %struct.AFormatContext, ptr %37, i32 0, i32 2
  %39 = load i32, ptr %38, align 8, !tbaa !24
  %40 = zext i32 %39 to i64
  %41 = getelementptr inbounds nuw i32, ptr %36, i64 %40
  store i32 -1, ptr %41, align 4, !tbaa !30
  store i32 0, ptr %6, align 4
  br label %42

42:                                               ; preds = %30, %29
  call void @llvm.lifetime.end.p0(i64 8, ptr %5) #6
  %43 = load i32, ptr %6, align 4
  switch i32 %43, label %112 [
    i32 0, label %44
  ]

44:                                               ; preds = %42
  br label %45

45:                                               ; preds = %44, %1
  %46 = load ptr, ptr %4, align 8, !tbaa !22
  %47 = getelementptr inbounds nuw %struct.AFormatContext, ptr %46, i32 0, i32 4
  %48 = load i32, ptr %47, align 8, !tbaa !31
  %49 = icmp ne i32 %48, 0
  br i1 %49, label %50, label %78

50:                                               ; preds = %45
  call void @llvm.lifetime.start.p0(i64 8, ptr %7) #6
  %51 = load ptr, ptr %4, align 8, !tbaa !22
  %52 = getelementptr inbounds nuw %struct.AFormatContext, ptr %51, i32 0, i32 3
  %53 = load ptr, ptr %52, align 8, !tbaa !32
  %54 = load ptr, ptr %4, align 8, !tbaa !22
  %55 = getelementptr inbounds nuw %struct.AFormatContext, ptr %54, i32 0, i32 4
  %56 = load i32, ptr %55, align 8, !tbaa !31
  %57 = add i32 %56, 1
  %58 = zext i32 %57 to i64
  %59 = call ptr @av_realloc_array(ptr noundef %53, i64 noundef %58, i64 noundef 4)
  store ptr %59, ptr %7, align 8, !tbaa !29
  %60 = load ptr, ptr %7, align 8, !tbaa !29
  %61 = icmp ne ptr %60, null
  br i1 %61, label %63, label %62

62:                                               ; preds = %50
  store i32 -12, ptr %2, align 4
  store i32 1, ptr %6, align 4
  br label %75

63:                                               ; preds = %50
  %64 = load ptr, ptr %7, align 8, !tbaa !29
  %65 = load ptr, ptr %4, align 8, !tbaa !22
  %66 = getelementptr inbounds nuw %struct.AFormatContext, ptr %65, i32 0, i32 3
  store ptr %64, ptr %66, align 8, !tbaa !32
  %67 = load ptr, ptr %4, align 8, !tbaa !22
  %68 = getelementptr inbounds nuw %struct.AFormatContext, ptr %67, i32 0, i32 3
  %69 = load ptr, ptr %68, align 8, !tbaa !32
  %70 = load ptr, ptr %4, align 8, !tbaa !22
  %71 = getelementptr inbounds nuw %struct.AFormatContext, ptr %70, i32 0, i32 4
  %72 = load i32, ptr %71, align 8, !tbaa !31
  %73 = zext i32 %72 to i64
  %74 = getelementptr inbounds nuw i32, ptr %69, i64 %73
  store i32 -1, ptr %74, align 4, !tbaa !30
  store i32 0, ptr %6, align 4
  br label %75

75:                                               ; preds = %63, %62
  call void @llvm.lifetime.end.p0(i64 8, ptr %7) #6
  %76 = load i32, ptr %6, align 4
  switch i32 %76, label %112 [
    i32 0, label %77
  ]

77:                                               ; preds = %75
  br label %78

78:                                               ; preds = %77, %45
  %79 = load ptr, ptr %4, align 8, !tbaa !22
  %80 = getelementptr inbounds nuw %struct.AFormatContext, ptr %79, i32 0, i32 6
  %81 = load i32, ptr %80, align 8, !tbaa !33
  %82 = icmp ne i32 %81, 0
  br i1 %82, label %83, label %111

83:                                               ; preds = %78
  call void @llvm.lifetime.start.p0(i64 8, ptr %8) #6
  %84 = load ptr, ptr %4, align 8, !tbaa !22
  %85 = getelementptr inbounds nuw %struct.AFormatContext, ptr %84, i32 0, i32 5
  %86 = load ptr, ptr %85, align 8, !tbaa !34
  %87 = load ptr, ptr %4, align 8, !tbaa !22
  %88 = getelementptr inbounds nuw %struct.AFormatContext, ptr %87, i32 0, i32 6
  %89 = load i32, ptr %88, align 8, !tbaa !33
  %90 = add i32 %89, 1
  %91 = zext i32 %90 to i64
  %92 = call ptr @av_realloc_array(ptr noundef %86, i64 noundef %91, i64 noundef 24)
  store ptr %92, ptr %8, align 8, !tbaa !29
  %93 = load ptr, ptr %8, align 8, !tbaa !29
  %94 = icmp ne ptr %93, null
  br i1 %94, label %96, label %95

95:                                               ; preds = %83
  store i32 -12, ptr %2, align 4
  store i32 1, ptr %6, align 4
  br label %108

96:                                               ; preds = %83
  %97 = load ptr, ptr %8, align 8, !tbaa !29
  %98 = load ptr, ptr %4, align 8, !tbaa !22
  %99 = getelementptr inbounds nuw %struct.AFormatContext, ptr %98, i32 0, i32 5
  store ptr %97, ptr %99, align 8, !tbaa !34
  %100 = load ptr, ptr %4, align 8, !tbaa !22
  %101 = getelementptr inbounds nuw %struct.AFormatContext, ptr %100, i32 0, i32 5
  %102 = load ptr, ptr %101, align 8, !tbaa !34
  %103 = load ptr, ptr %4, align 8, !tbaa !22
  %104 = getelementptr inbounds nuw %struct.AFormatContext, ptr %103, i32 0, i32 6
  %105 = load i32, ptr %104, align 8, !tbaa !33
  %106 = zext i32 %105 to i64
  %107 = getelementptr inbounds nuw %struct.AVChannelLayout, ptr %102, i64 %106
  call void @llvm.memset.p0.i64(ptr align 8 %9, i8 0, i64 24, i1 false)
  call void @llvm.memcpy.p0.p0.i64(ptr align 8 %107, ptr align 8 %9, i64 24, i1 false), !tbaa.struct !35
  store i32 0, ptr %6, align 4
  br label %108

108:                                              ; preds = %96, %95
  call void @llvm.lifetime.end.p0(i64 8, ptr %8) #6
  %109 = load i32, ptr %6, align 4
  switch i32 %109, label %112 [
    i32 0, label %110
  ]

110:                                              ; preds = %108
  br label %111

111:                                              ; preds = %110, %78
  store i32 0, ptr %2, align 4
  store i32 1, ptr %6, align 4
  br label %112

112:                                              ; preds = %111, %108, %75, %42
  call void @llvm.lifetime.end.p0(i64 8, ptr %4) #6
  %113 = load i32, ptr %2, align 4
  ret i32 %113
}