; Function Attrs: cold nounwind optsize uwtable
define internal range(i32 -12, 1) i32 @init(ptr noundef readonly captures(none) %0) #0 {
  %2 = getelementptr inbounds nuw i8, ptr %0, i64 72
  %3 = load ptr, ptr %2, align 8, !tbaa !4
  %4 = getelementptr inbounds nuw i8, ptr %3, i64 16
  %5 = load i32, ptr %4, align 8, !tbaa !20
  %.not = icmp eq i32 %5, 0
  br i1 %.not, label %16, label %6

6:                                                ; preds = %1
  %7 = getelementptr inbounds nuw i8, ptr %3, i64 8
  %8 = load ptr, ptr %7, align 8, !tbaa !24
  %9 = add i32 %5, 1
  %10 = zext i32 %9 to i64
  %11 = tail call ptr @av_realloc_array(ptr noundef %8, i64 noundef %10, i64 noundef 4) #4
  %.not38.not = icmp eq ptr %11, null
  br i1 %.not38.not, label %.critedge, label %12

12:                                               ; preds = %6
  store ptr %11, ptr %7, align 8, !tbaa !24
  %13 = load i32, ptr %4, align 8, !tbaa !20
  %14 = zext i32 %13 to i64
  %15 = getelementptr inbounds nuw i32, ptr %11, i64 %14
  store i32 -1, ptr %15, align 4, !tbaa !25
  br label %16

16:                                               ; preds = %12, %1
  %17 = getelementptr inbounds nuw i8, ptr %3, i64 32
  %18 = load i32, ptr %17, align 8, !tbaa !26
  %.not39 = icmp eq i32 %18, 0
  br i1 %.not39, label %29, label %19

19:                                               ; preds = %16
  %20 = getelementptr inbounds nuw i8, ptr %3, i64 24
  %21 = load ptr, ptr %20, align 8, !tbaa !27
  %22 = add i32 %18, 1
  %23 = zext i32 %22 to i64
  %24 = tail call ptr @av_realloc_array(ptr noundef %21, i64 noundef %23, i64 noundef 4) #4
  %.not40.not = icmp eq ptr %24, null
  br i1 %.not40.not, label %.critedge, label %25

25:                                               ; preds = %19
  store ptr %24, ptr %20, align 8, !tbaa !27
  %26 = load i32, ptr %17, align 8, !tbaa !26
  %27 = zext i32 %26 to i64
  %28 = getelementptr inbounds nuw i32, ptr %24, i64 %27
  store i32 -1, ptr %28, align 4, !tbaa !25
  br label %29

29:                                               ; preds = %25, %16
  %30 = getelementptr inbounds nuw i8, ptr %3, i64 48
  %31 = load i32, ptr %30, align 8, !tbaa !28
  %.not41 = icmp eq i32 %31, 0
  br i1 %.not41, label %.critedge, label %32

32:                                               ; preds = %29
  %33 = getelementptr inbounds nuw i8, ptr %3, i64 40
  %34 = load ptr, ptr %33, align 8, !tbaa !29
  %35 = add i32 %31, 1
  %36 = zext i32 %35 to i64
  %37 = tail call ptr @av_realloc_array(ptr noundef %34, i64 noundef %36, i64 noundef 24) #4
  %.not42.not = icmp eq ptr %37, null
  br i1 %.not42.not, label %.critedge, label %38

38:                                               ; preds = %32
  store ptr %37, ptr %33, align 8, !tbaa !29
  %39 = load i32, ptr %30, align 8, !tbaa !28
  %40 = zext i32 %39 to i64
  %41 = getelementptr inbounds nuw %struct.AVChannelLayout, ptr %37, i64 %40
  tail call void @llvm.memset.p0.i64(ptr noundef nonnull align 8 dereferenceable(24) %41, i8 0, i64 24, i1 false)
  br label %.critedge

.critedge:                                        ; preds = %29, %38, %32, %19, %6
  %.2 = phi i32 [ -12, %6 ], [ -12, %19 ], [ -12, %32 ], [ 0, %38 ], [ 0, %29 ]
  ret i32 %.2
}